; Function Attrs: mustprogress nounwind uwtable
define internal fastcc void @_ZL13setRecordNamejRN4llvm15BitstreamWriterERNS_15SmallVectorImplImEENS_9StringRefE(i32 noundef %0, ptr noundef nonnull align 8 dereferenceable(152) %1, ptr noundef nonnull align 8 dereferenceable(16) %2, ptr %3, i64 %4) unnamed_addr #0 {
  %6 = tail call noundef i64 @_ZNK4llvm15SmallVectorBaseIjE4sizeEv(ptr noundef nonnull align 8 dereferenceable(16) %2) #14
  %7 = getelementptr inbounds nuw i8, ptr %2, i64 8
  store i32 0, ptr %7, align 8
  %8 = tail call noundef i64 @_ZNK4llvm15SmallVectorBaseIjE4sizeEv(ptr noundef nonnull align 8 dereferenceable(16) %2) #14
  %9 = add i64 %8, 1
  %10 = tail call noundef i64 @_ZNK4llvm15SmallVectorBaseIjE8capacityEv(ptr noundef nonnull align 8 dereferenceable(16) %2) #14
  %.not.i.i.i = icmp ugt i64 %9, %10
  br i1 %.not.i.i.i, label %11, label %_ZN4llvm23SmallVectorTemplateBaseImLb1EE9push_backEm.exit

11:                                               ; preds = %5
  %12 = getelementptr inbounds i8, ptr %2, i64 16
  tail call void @_ZN4llvm15SmallVectorBaseIjE8grow_podEPvmm(ptr noundef nonnull align 8 dereferenceable(16) %2, ptr noundef nonnull %12, i64 noundef %9, i64 noundef 8) #14
  br label %_ZN4llvm23SmallVectorTemplateBaseImLb1EE9push_backEm.exit

_ZN4llvm23SmallVectorTemplateBaseImLb1EE9push_backEm.exit: ; preds = %5, %11
  %13 = zext nneg i32 %0 to i64
  %14 = load ptr, ptr %2, align 8
  %15 = tail call noundef i64 @_ZNK4llvm15SmallVectorBaseIjE4sizeEv(ptr noundef nonnull align 8 dereferenceable(16) %2) #14
  %16 = getelementptr inbounds i64, ptr %14, i64 %15
  store i64 %13, ptr %16, align 1
  %17 = tail call noundef i64 @_ZNK4llvm15SmallVectorBaseIjE4sizeEv(ptr noundef nonnull align 8 dereferenceable(16) %2) #14
  %18 = add i64 %17, 1
  tail call void @_ZN4llvm15SmallVectorBaseIjE8set_sizeEm(ptr noundef nonnull align 8 dereferenceable(16) %2, i64 noundef %18) #14
  %19 = load ptr, ptr %2, align 8
  %20 = tail call noundef i64 @_ZNK4llvm15SmallVectorBaseIjE4sizeEv(ptr noundef nonnull align 8 dereferenceable(16) %2) #14
  %21 = getelementptr inbounds i64, ptr %19, i64 %20
  %22 = getelementptr inbounds i8, ptr %3, i64 %4
  %23 = tail call noundef ptr @_ZN4llvm15SmallVectorImplImE6insertIPKcvEEPmS5_T_S6_(ptr noundef nonnull align 8 dereferenceable(16) %2, ptr noundef %21, ptr noundef %3, ptr noundef %22)
  tail call void @_ZN4llvm15BitstreamWriter10EmitRecordINS_15SmallVectorImplImEEEEvjRKT_j(ptr noundef nonnull align 8 dereferenceable(152) %1, i32 noundef 3, ptr noundef nonnull align 8 dereferenceable(16) %2, i32 noundef 0)
  ret void
}